; Function Attrs: mustprogress uwtable
define void @_ZN9context_t7wrapperEjj(i32 noundef %0, i32 noundef %1) #0 align 2 {
  %3 = zext i32 %1 to i64
  %4 = zext i32 %0 to i64
  %5 = shl nuw i64 %4, 32
  %6 = or disjoint i64 %5, %3
  %7 = inttoptr i64 %6 to ptr
  %8 = load ptr, ptr %7, align 8, !tbaa !8
  %9 = tail call align 8 ptr @llvm.threadlocal.address.p0(ptr align 8 @_ZL3cur)
  %10 = load ptr, ptr %9, align 8, !tbaa !17
  store ptr %8, ptr %9, align 8, !tbaa !17
  %11 = getelementptr inbounds nuw i8, ptr %10, i64 24
  %12 = load ptr, ptr %11, align 8, !tbaa !3
  %13 = getelementptr inbounds nuw i8, ptr %8, i64 24
  %14 = load ptr, ptr %13, align 8, !tbaa !3
  %15 = tail call i32 @swapcontext(ptr noundef %12, ptr noundef %14) #10
  %.not.i = icmp eq i32 %15, 0
  br i1 %.not.i, label %_ZN9context_t9switch_toEv.exit, label %16

16:                                               ; preds = %2
  tail call void @abort() #11
  unreachable

_ZN9context_t9switch_toEv.exit:                   ; preds = %2
  %17 = getelementptr inbounds nuw i8, ptr %7, i64 8
  %18 = load ptr, ptr %17, align 8, !tbaa !18
  %19 = getelementptr inbounds nuw i8, ptr %7, i64 16
  %20 = load ptr, ptr %19, align 8, !tbaa !19
  tail call void %18(ptr noundef %20)
  ret void
}